; ModuleID = '60/1429.c'
source_filename = "60/1429.c"
target datalayout = "e-m:e-p270:32:32-p271:32:32-p272:64:64-i64:64-f80:128-n8:16:32:64-S128"
target triple = "x86_64-pc-linux-gnu"

@.str = private unnamed_addr constant [3 x i8] c"%d\00", align 1
@.str.1 = private unnamed_addr constant [7 x i8] c"%d %d\0A\00", align 1
@.str.2 = private unnamed_addr constant [6 x i8] c"empty\00", align 1

; Function Attrs: noinline nounwind uwtable
define dso_local i32 @main() #0 {
  %1 = alloca i32, align 4
  %2 = alloca i32, align 4
  %3 = alloca i32, align 4
  %4 = alloca i32, align 4
  store i32 0, i32* %1, align 4
  %5 = call i32 (i8*, ...) @__isoc99_scanf(i8* getelementptr inbounds ([3 x i8], [3 x i8]* @.str, i64 0, i64 0), i32* %4)
  store i32 1, i32* %2, align 4
  store i32 0, i32* %3, align 4
  br label %6

6:                                                ; preds = %31, %0
  %7 = load i32, i32* %2, align 4
  %8 = load i32, i32* %4, align 4
  %9 = icmp sle i32 %7, %8
  br i1 %9, label %10, label %34

10:                                               ; preds = %6
  %11 = load i32, i32* %2, align 4
  %12 = call i32 @isprime(i32 %11)
  %13 = icmp eq i32 %12, 1
  br i1 %13, label %14, label %31

14:                                               ; preds = %10
  %15 = load i32, i32* %2, align 4
  %16 = add nsw i32 %15, 2
  %17 = call i32 @isprime(i32 %16)
  %18 = icmp eq i32 %17, 1
  br i1 %18, label %19, label %31

19:                                               ; preds = %14
  %20 = load i32, i32* %2, align 4
  %21 = add nsw i32 %20, 2
  %22 = load i32, i32* %4, align 4
  %23 = icmp sle i32 %21, %22
  br i1 %23, label %24, label %31

24:                                               ; preds = %19
  %25 = load i32, i32* %2, align 4
  %26 = load i32, i32* %2, align 4
  %27 = add nsw i32 %26, 2
  %28 = call i32 (i8*, ...) @printf(i8* getelementptr inbounds ([7 x i8], [7 x i8]* @.str.1, i64 0, i64 0), i32 %25, i32 %27)
  %29 = load i32, i32* %3, align 4
  %30 = add nsw i32 %29, 1
  store i32 %30, i32* %3, align 4
  br label %31

31:                                               ; preds = %24, %19, %14, %10
  %32 = load i32, i32* %2, align 4
  %33 = add nsw i32 %32, 2
  store i32 %33, i32* %2, align 4
  br label %6

34:                                               ; preds = %6
  %35 = load i32, i32* %3, align 4
  %36 = icmp eq i32 %35, 0
  br i1 %36, label %37, label %39

37:                                               ; preds = %34
  %38 = call i32 (i8*, ...) @printf(i8* getelementptr inbounds ([6 x i8], [6 x i8]* @.str.2, i64 0, i64 0))
  br label %39

39:                                               ; preds = %37, %34
  %40 = load i32, i32* %1, align 4
  ret i32 %40
}

declare dso_local i32 @__isoc99_scanf(i8*, ...) #1

declare dso_local i32 @printf(i8*, ...) #1

; Function Attrs: noinline nounwind uwtable
define dso_local i32 @isprime(i32 %0) #0 {
  %2 = alloca i32, align 4
  %3 = alloca i32, align 4
  %4 = alloca i32, align 4
  store i32 %0, i32* %3, align 4
  store i32 2, i32* %4, align 4
  br label %5

5:                                                ; preds = %16, %1
  %6 = load i32, i32* %4, align 4
  %7 = load i32, i32* %3, align 4
  %8 = icmp slt i32 %6, %7
  br i1 %8, label %9, label %14

9:                                                ; preds = %5
  %10 = load i32, i32* %3, align 4
  %11 = load i32, i32* %4, align 4
  %12 = srem i32 %10, %11
  %13 = icmp ne i32 %12, 0
  br label %14

14:                                               ; preds = %9, %5
  %15 = phi i1 [ false, %5 ], [ %13, %9 ]
  br i1 %15, label %16, label %19

16:                                               ; preds = %14
  %17 = load i32, i32* %4, align 4
  %18 = add nsw i32 %17, 1
  store i32 %18, i32* %4, align 4
  br label %5

19:                                               ; preds = %14
  %20 = load i32, i32* %4, align 4
  %21 = load i32, i32* %3, align 4
  %22 = icmp eq i32 %20, %21
  br i1 %22, label %23, label %24

23:                                               ; preds = %19
  store i32 1, i32* %2, align 4
  br label %25

24:                                               ; preds = %19
  store i32 0, i32* %2, align 4
  br label %25

25:                                               ; preds = %24, %23
  %26 = load i32, i32* %2, align 4
  ret i32 %26
}


!llvm.module.flags = !{!0}
!llvm.ident = !{!1}

!0 = !{i32 1, !"wchar_size", i32 4}
!1 = !{!"clang version 10.0.0-4ubuntu1 "}
