; ModuleID = 'source-C-CXX/59/1429.c'
source_filename = "source-C-CXX/59/1429.c"
target datalayout = "e-m:e-p270:32:32-p271:32:32-p272:64:64-i64:64-f80:128-n8:16:32:64-S128"
target triple = "x86_64-pc-linux-gnu"

@.str = private unnamed_addr constant [3 x i8] c"%d\00", align 1
@.str.1 = private unnamed_addr constant [7 x i8] c"%d %d\0A\00", align 1
@.str.2 = private unnamed_addr constant [6 x i8] c"empty\00", align 1

; Function Attrs: nofree nounwind sspstrong uwtable
define dso_local i32 @main() local_unnamed_addr #0 {
  %1 = alloca i32, align 4
  %2 = bitcast i32* %1 to i8*
  call void @llvm.lifetime.start.p0i8(i64 4, i8* nonnull %2) #4
  %3 = call i32 (i8*, ...) @__isoc99_scanf(i8* getelementptr inbounds ([3 x i8], [3 x i8]* @.str, i64 0, i64 0), i32* nonnull %1)
  %4 = load i32, i32* %1, align 4, !tbaa !5
  %5 = icmp slt i32 %4, 1
  br i1 %5, label %45, label %6

6:                                                ; preds = %0, %38
  %7 = phi i32 [ %39, %38 ], [ %4, %0 ]
  %8 = phi i32 [ %40, %38 ], [ 0, %0 ]
  %9 = phi i32 [ %41, %38 ], [ 1, %0 ]
  %10 = icmp ugt i32 %9, 2
  br i1 %10, label %11, label %38

11:                                               ; preds = %6, %15
  %12 = phi i32 [ %16, %15 ], [ 2, %6 ]
  %13 = urem i32 %9, %12
  %14 = icmp eq i32 %13, 0
  br i1 %14, label %18, label %15

15:                                               ; preds = %11
  %16 = add nuw nsw i32 %12, 1
  %17 = icmp eq i32 %16, %9
  br i1 %17, label %20, label %11, !llvm.loop !9

18:                                               ; preds = %11
  %19 = icmp eq i32 %12, %9
  br i1 %19, label %20, label %38

20:                                               ; preds = %15, %18
  %21 = add nuw nsw i32 %9, 2
  br label %22

22:                                               ; preds = %26, %20
  %23 = phi i32 [ %27, %26 ], [ 2, %20 ]
  %24 = urem i32 %21, %23
  %25 = icmp eq i32 %24, 0
  br i1 %25, label %29, label %26

26:                                               ; preds = %22
  %27 = add nuw nsw i32 %23, 1
  %28 = icmp eq i32 %27, %21
  br i1 %28, label %29, label %22, !llvm.loop !9

29:                                               ; preds = %22, %26
  %30 = phi i32 [ %21, %26 ], [ %23, %22 ]
  %31 = icmp ne i32 %30, %21
  %32 = icmp sgt i32 %21, %7
  %33 = select i1 %31, i1 true, i1 %32
  br i1 %33, label %38, label %34

34:                                               ; preds = %29
  %35 = call i32 (i8*, ...) @printf(i8* nonnull dereferenceable(1) getelementptr inbounds ([7 x i8], [7 x i8]* @.str.1, i64 0, i64 0), i32 %9, i32 %21)
  %36 = add nsw i32 %8, 1
  %37 = load i32, i32* %1, align 4, !tbaa !5
  br label %38

38:                                               ; preds = %6, %34, %29, %18
  %39 = phi i32 [ %37, %34 ], [ %7, %29 ], [ %7, %18 ], [ %7, %6 ]
  %40 = phi i32 [ %36, %34 ], [ %8, %29 ], [ %8, %18 ], [ %8, %6 ]
  %41 = add nuw nsw i32 %9, 2
  %42 = icmp sgt i32 %41, %39
  br i1 %42, label %43, label %6, !llvm.loop !11

43:                                               ; preds = %38
  %44 = icmp eq i32 %40, 0
  br i1 %44, label %45, label %47

45:                                               ; preds = %0, %43
  %46 = call i32 (i8*, ...) @printf(i8* nonnull dereferenceable(1) getelementptr inbounds ([6 x i8], [6 x i8]* @.str.2, i64 0, i64 0))
  br label %47

47:                                               ; preds = %45, %43
  call void @llvm.lifetime.end.p0i8(i64 4, i8* nonnull %2) #4
  ret i32 0
}

; Function Attrs: argmemonly mustprogress nofree nosync nounwind willreturn
declare void @llvm.lifetime.start.p0i8(i64 immarg, i8* nocapture) #1

; Function Attrs: nofree nounwind
declare noundef i32 @__isoc99_scanf(i8* nocapture noundef readonly, ...) local_unnamed_addr #2

; Function Attrs: nofree nounwind
declare noundef i32 @printf(i8* nocapture noundef readonly, ...) local_unnamed_addr #2

; Function Attrs: argmemonly mustprogress nofree nosync nounwind willreturn
declare void @llvm.lifetime.end.p0i8(i64 immarg, i8* nocapture) #1

; Function Attrs: nofree norecurse nosync nounwind readnone sspstrong uwtable
define dso_local i32 @isprime(i32 %0) local_unnamed_addr #3 {
  %2 = icmp sgt i32 %0, 2
  br i1 %2, label %3, label %10

3:                                                ; preds = %1, %7
  %4 = phi i32 [ %8, %7 ], [ 2, %1 ]
  %5 = srem i32 %0, %4
  %6 = icmp eq i32 %5, 0
  br i1 %6, label %10, label %7

7:                                                ; preds = %3
  %8 = add nuw nsw i32 %4, 1
  %9 = icmp eq i32 %8, %0
  br i1 %9, label %10, label %3, !llvm.loop !9

10:                                               ; preds = %3, %7, %1
  %11 = phi i32 [ 2, %1 ], [ %0, %7 ], [ %4, %3 ]
  %12 = icmp eq i32 %11, %0
  %13 = zext i1 %12 to i32
  ret i32 %13
}


!llvm.module.flags = !{!0, !1, !2, !3}
!llvm.ident = !{!4}

!0 = !{i32 1, !"wchar_size", i32 4}
!1 = !{i32 7, !"PIC Level", i32 2}
!2 = !{i32 7, !"PIE Level", i32 2}
!3 = !{i32 7, !"uwtable", i32 1}
!4 = !{!"clang version 13.0.0"}
!5 = !{!6, !6, i64 0}
!6 = !{!"int", !7, i64 0}
!7 = !{!"omnipotent char", !8, i64 0}
!8 = !{!"Simple C/C++ TBAA"}
!9 = distinct !{!9, !10}
!10 = !{!"llvm.loop.mustprogress"}
!11 = distinct !{!11, !10}
